target datalayout = "e-m:e-p270:32:32-p271:32:32-p272:64:64-i64:64-i128:128-f80:128-n8:16:32:64-S128"
target triple = "x86_64-pc-linux-gnu"

%struct.GetBitContext = type { ptr, ptr, i32, i32, i32 }
%struct.RV34DecContext = type { %struct.MpegEncContext, %struct.RV34DSPContext, ptr, ptr, i32, ptr, ptr, ptr, %struct.H264PredContext, %struct.SliceInfo, ptr, i32, i32, i32, i32, [4 x [2 x i32]], i32, i32, i32, i32, i32, i32, i32, i32, i32, i32, i32, i32, ptr, ptr, ptr, [12 x i32], [2 x ptr], [4 x ptr], ptr, ptr, ptr, ptr, ptr }
%struct.MpegEncContext = type { ptr, i32, i32, i32, [12 x i32], i32, %struct.ScanTable, %struct.ScanTable, [64 x i8], [64 x i8], ptr, ptr, i32, i32, i32, i32, i32, i32, i32, i32, i32, i32, i32, i32, i32, i32, i32, i32, i32, i32, i32, i32, i64, i64, ptr, %struct.BufferPoolContext, i32, i32, %union.anon.0, i32, %struct.MPVWorkPicture, %struct.MPVWorkPicture, %struct.MPVWorkPicture, i32, [3 x i32], ptr, [3 x ptr], ptr, ptr, ptr, ptr, ptr, ptr, [3 x ptr], i32, ptr, ptr, ptr, ptr, %struct.ScratchpadContext, i32, i32, i32, i32, i32, i32, %struct.BlockDSPContext, %struct.H264ChromaContext, %struct.HpelDSPContext, %struct.IDCTDSPContext, %struct.QpelDSPContext, %struct.VideoDSPContext, %struct.H263DSPContext, ptr, [2 x [2 x ptr]], i32, i32, [2 x [4 x [2 x i32]]], [2 x [2 x i32]], [2 x [2 x [2 x i32]]], [2 x [64 x i16]], i32, i32, i32, i32, i32, [6 x i32], [6 x i32], [3 x ptr], ptr, [64 x i16], [64 x i16], [64 x i16], [64 x i16], i32, i32, %struct.GetBitContext, i32, i32, i32, i32, i32, i32, i32, i32, i32, i32, i32, i32, i32, i32, i32, i64, i64, i16, i16, i16, i16, i32, i32, i32, i32, i32, i32, i32, i32, i32, [3 x i32], i32, i32, i32, i32, i32, i32, %struct.GetBitContext, i32, [2 x [2 x i32]], i32, i32, i32, i32, i32, i32, i32, i32, i32, i32, i32, i32, i32, i32, [2 x i32], i32, i32, ptr, ptr, ptr, ptr, ptr, i32, i32, %struct.ERContext }
%struct.ScanTable = type { ptr, [64 x i8], [64 x i8] }
%struct.BufferPoolContext = type { ptr, ptr, ptr, ptr, ptr, i32, i32, i32 }
%union.anon.0 = type { [32 x ptr] }
%struct.MPVWorkPicture = type { [3 x ptr], [3 x i64], ptr, ptr, [2 x ptr], ptr, ptr, [2 x ptr], i32 }
%struct.ScratchpadContext = type { ptr, ptr, %union.anon.1, i32 }
%union.anon.1 = type { ptr }
%struct.BlockDSPContext = type { ptr, ptr, [2 x ptr] }
%struct.H264ChromaContext = type { [4 x ptr], [4 x ptr] }
%struct.HpelDSPContext = type { [4 x [4 x ptr]], [4 x [4 x ptr]], [4 x [4 x ptr]], [4 x ptr] }
%struct.IDCTDSPContext = type { ptr, ptr, ptr, ptr, ptr, ptr, [64 x i8], i32, i32 }
%struct.QpelDSPContext = type { [2 x [16 x ptr]], [2 x [16 x ptr]], [2 x [16 x ptr]] }
%struct.VideoDSPContext = type { ptr, ptr }
%struct.H263DSPContext = type { ptr, ptr }
%struct.ERContext = type { ptr, ptr, i32, ptr, i32, i32, i32, i64, i64, i32, i32, ptr, ptr, [3 x ptr], ptr, ptr, [2 x [4 x [2 x i32]]], %struct.ERPicture, %struct.ERPicture, %struct.ERPicture, [2 x ptr], [2 x ptr], i16, i16, i32, i32, ptr, ptr }
%struct.ERPicture = type { ptr, ptr, ptr, [2 x ptr], [2 x ptr], ptr, i32 }
%struct.RV34DSPContext = type { [4 x [16 x ptr]], [4 x [16 x ptr]], [3 x ptr], [3 x ptr], [2 x [2 x ptr]], ptr, ptr, ptr, ptr, [2 x ptr], [2 x ptr], [2 x ptr] }
%struct.H264PredContext = type { [15 x ptr], [12 x ptr], [11 x ptr], [9 x ptr], [2 x ptr], [2 x ptr], [2 x ptr], [3 x ptr], [3 x ptr] }
%struct.SliceInfo = type { i32, i32, i32, i32, i32, i32, i32, i32 }

; Function Attrs: nounwind uwtable
define internal void @rv34_decoder_free(ptr noundef %0) #0 {
  %2 = alloca ptr, align 8
  store ptr %0, ptr %2, align 8, !tbaa !41
  %3 = load ptr, ptr %2, align 8, !tbaa !41
  %4 = getelementptr inbounds nuw %struct.RV34DecContext, ptr %3, i32 0, i32 2
  call void @av_freep(ptr noundef %4)
  %5 = load ptr, ptr %2, align 8, !tbaa !41
  %6 = getelementptr inbounds nuw %struct.RV34DecContext, ptr %5, i32 0, i32 3
  store ptr null, ptr %6, align 8, !tbaa !83
  %7 = load ptr, ptr %2, align 8, !tbaa !41
  %8 = getelementptr inbounds nuw %struct.RV34DecContext, ptr %7, i32 0, i32 34
  call void @av_freep(ptr noundef %8)
  %9 = load ptr, ptr %2, align 8, !tbaa !41
  %10 = getelementptr inbounds nuw %struct.RV34DecContext, ptr %9, i32 0, i32 10
  call void @av_freep(ptr noundef %10)
  %11 = load ptr, ptr %2, align 8, !tbaa !41
  %12 = getelementptr inbounds nuw %struct.RV34DecContext, ptr %11, i32 0, i32 28
  call void @av_freep(ptr noundef %12)
  %13 = load ptr, ptr %2, align 8, !tbaa !41
  %14 = getelementptr inbounds nuw %struct.RV34DecContext, ptr %13, i32 0, i32 29
  call void @av_freep(ptr noundef %14)
  %15 = load ptr, ptr %2, align 8, !tbaa !41
  %16 = getelementptr inbounds nuw %struct.RV34DecContext, ptr %15, i32 0, i32 30
  call void @av_freep(ptr noundef %16)
  ret void
}

; Function Attrs: nounwind uwtable
define internal i32 @rv34_decoder_alloc(ptr noundef %0) #0 {
  %2 = alloca i32, align 4
  %3 = alloca ptr, align 8
  store ptr %0, ptr %3, align 8, !tbaa !41
  %4 = load ptr, ptr %3, align 8, !tbaa !41
  %5 = getelementptr inbounds nuw %struct.RV34DecContext, ptr %4, i32 0, i32 0
  %6 = getelementptr inbounds nuw %struct.MpegEncContext, ptr %5, i32 0, i32 25
  %7 = load i32, ptr %6, align 4, !tbaa !68
  %8 = mul nsw i32 %7, 4
  %9 = add nsw i32 %8, 4
  %10 = load ptr, ptr %3, align 8, !tbaa !41
  %11 = getelementptr inbounds nuw %struct.RV34DecContext, ptr %10, i32 0, i32 4
  store i32 %9, ptr %11, align 8, !tbaa !74
  %12 = load ptr, ptr %3, align 8, !tbaa !41
  %13 = getelementptr inbounds nuw %struct.RV34DecContext, ptr %12, i32 0, i32 0
  %14 = getelementptr inbounds nuw %struct.MpegEncContext, ptr %13, i32 0, i32 27
  %15 = load i32, ptr %14, align 4, !tbaa !75
  %16 = load ptr, ptr %3, align 8, !tbaa !41
  %17 = getelementptr inbounds nuw %struct.RV34DecContext, ptr %16, i32 0, i32 0
  %18 = getelementptr inbounds nuw %struct.MpegEncContext, ptr %17, i32 0, i32 26
  %19 = load i32, ptr %18, align 8, !tbaa !76
  %20 = mul nsw i32 %15, %19
  %21 = sext i32 %20 to i64
  %22 = mul i64 %21, 1
  %23 = call noalias ptr @av_mallocz(i64 noundef %22)
  %24 = load ptr, ptr %3, align 8, !tbaa !41
  %25 = getelementptr inbounds nuw %struct.RV34DecContext, ptr %24, i32 0, i32 29
  store ptr %23, ptr %25, align 8, !tbaa !77
  %26 = load ptr, ptr %3, align 8, !tbaa !41
  %27 = getelementptr inbounds nuw %struct.RV34DecContext, ptr %26, i32 0, i32 0
  %28 = getelementptr inbounds nuw %struct.MpegEncContext, ptr %27, i32 0, i32 27
  %29 = load i32, ptr %28, align 4, !tbaa !75
  %30 = load ptr, ptr %3, align 8, !tbaa !41
  %31 = getelementptr inbounds nuw %struct.RV34DecContext, ptr %30, i32 0, i32 0
  %32 = getelementptr inbounds nuw %struct.MpegEncContext, ptr %31, i32 0, i32 26
  %33 = load i32, ptr %32, align 8, !tbaa !76
  %34 = mul nsw i32 %29, %33
  %35 = sext i32 %34 to i64
  %36 = mul i64 %35, 2
  %37 = call noalias ptr @av_mallocz(i64 noundef %36)
  %38 = load ptr, ptr %3, align 8, !tbaa !41
  %39 = getelementptr inbounds nuw %struct.RV34DecContext, ptr %38, i32 0, i32 28
  store ptr %37, ptr %39, align 8, !tbaa !78
  %40 = load ptr, ptr %3, align 8, !tbaa !41
  %41 = getelementptr inbounds nuw %struct.RV34DecContext, ptr %40, i32 0, i32 0
  %42 = getelementptr inbounds nuw %struct.MpegEncContext, ptr %41, i32 0, i32 27
  %43 = load i32, ptr %42, align 4, !tbaa !75
  %44 = load ptr, ptr %3, align 8, !tbaa !41
  %45 = getelementptr inbounds nuw %struct.RV34DecContext, ptr %44, i32 0, i32 0
  %46 = getelementptr inbounds nuw %struct.MpegEncContext, ptr %45, i32 0, i32 26
  %47 = load i32, ptr %46, align 8, !tbaa !76
  %48 = mul nsw i32 %43, %47
  %49 = sext i32 %48 to i64
  %50 = mul i64 %49, 2
  %51 = call noalias ptr @av_mallocz(i64 noundef %50)
  %52 = load ptr, ptr %3, align 8, !tbaa !41
  %53 = getelementptr inbounds nuw %struct.RV34DecContext, ptr %52, i32 0, i32 30
  store ptr %51, ptr %53, align 8, !tbaa !79
  %54 = load ptr, ptr %3, align 8, !tbaa !41
  %55 = getelementptr inbounds nuw %struct.RV34DecContext, ptr %54, i32 0, i32 4
  %56 = load i32, ptr %55, align 8, !tbaa !74
  %57 = mul nsw i32 %56, 4
  %58 = mul nsw i32 %57, 2
  %59 = sext i32 %58 to i64
  %60 = mul i64 %59, 1
  %61 = call noalias ptr @av_malloc(i64 noundef %60)
  %62 = load ptr, ptr %3, align 8, !tbaa !41
  %63 = getelementptr inbounds nuw %struct.RV34DecContext, ptr %62, i32 0, i32 2
  store ptr %61, ptr %63, align 8, !tbaa !80
  %64 = load ptr, ptr %3, align 8, !tbaa !41
  %65 = getelementptr inbounds nuw %struct.RV34DecContext, ptr %64, i32 0, i32 0
  %66 = getelementptr inbounds nuw %struct.MpegEncContext, ptr %65, i32 0, i32 27
  %67 = load i32, ptr %66, align 4, !tbaa !75
  %68 = load ptr, ptr %3, align 8, !tbaa !41
  %69 = getelementptr inbounds nuw %struct.RV34DecContext, ptr %68, i32 0, i32 0
  %70 = getelementptr inbounds nuw %struct.MpegEncContext, ptr %69, i32 0, i32 26
  %71 = load i32, ptr %70, align 8, !tbaa !76
  %72 = mul nsw i32 %67, %71
  %73 = sext i32 %72 to i64
  %74 = mul i64 %73, 4
  %75 = call noalias ptr @av_mallocz(i64 noundef %74)
  %76 = load ptr, ptr %3, align 8, !tbaa !41
  %77 = getelementptr inbounds nuw %struct.RV34DecContext, ptr %76, i32 0, i32 10
  store ptr %75, ptr %77, align 8, !tbaa !81
  %78 = load ptr, ptr %3, align 8, !tbaa !41
  %79 = getelementptr inbounds nuw %struct.RV34DecContext, ptr %78, i32 0, i32 29
  %80 = load ptr, ptr %79, align 8, !tbaa !77
  %81 = icmp ne ptr %80, null
  br i1 %81, label %82, label %102

82:                                               ; preds = %1
  %83 = load ptr, ptr %3, align 8, !tbaa !41
  %84 = getelementptr inbounds nuw %struct.RV34DecContext, ptr %83, i32 0, i32 28
  %85 = load ptr, ptr %84, align 8, !tbaa !78
  %86 = icmp ne ptr %85, null
  br i1 %86, label %87, label %102

87:                                               ; preds = %82
  %88 = load ptr, ptr %3, align 8, !tbaa !41
  %89 = getelementptr inbounds nuw %struct.RV34DecContext, ptr %88, i32 0, i32 30
  %90 = load ptr, ptr %89, align 8, !tbaa !79
  %91 = icmp ne ptr %90, null
  br i1 %91, label %92, label %102

92:                                               ; preds = %87
  %93 = load ptr, ptr %3, align 8, !tbaa !41
  %94 = getelementptr inbounds nuw %struct.RV34DecContext, ptr %93, i32 0, i32 2
  %95 = load ptr, ptr %94, align 8, !tbaa !80
  %96 = icmp ne ptr %95, null
  br i1 %96, label %97, label %102

97:                                               ; preds = %92
  %98 = load ptr, ptr %3, align 8, !tbaa !41
  %99 = getelementptr inbounds nuw %struct.RV34DecContext, ptr %98, i32 0, i32 10
  %100 = load ptr, ptr %99, align 8, !tbaa !81
  %101 = icmp ne ptr %100, null
  br i1 %101, label %107, label %102

102:                                              ; preds = %97, %92, %87, %82, %1
  %103 = load ptr, ptr %3, align 8, !tbaa !41
  %104 = getelementptr inbounds nuw %struct.RV34DecContext, ptr %103, i32 0, i32 0
  %105 = getelementptr inbounds nuw %struct.MpegEncContext, ptr %104, i32 0, i32 159
  store i32 1, ptr %105, align 8, !tbaa !82
  %106 = load ptr, ptr %3, align 8, !tbaa !41
  call void @rv34_decoder_free(ptr noundef %106)
  store i32 -12, ptr %2, align 4
  br label %119

107:                                              ; preds = %97
  %108 = load ptr, ptr %3, align 8, !tbaa !41
  %109 = getelementptr inbounds nuw %struct.RV34DecContext, ptr %108, i32 0, i32 2
  %110 = load ptr, ptr %109, align 8, !tbaa !80
  %111 = load ptr, ptr %3, align 8, !tbaa !41
  %112 = getelementptr inbounds nuw %struct.RV34DecContext, ptr %111, i32 0, i32 4
  %113 = load i32, ptr %112, align 8, !tbaa !74
  %114 = mul nsw i32 %113, 4
  %115 = sext i32 %114 to i64
  %116 = getelementptr inbounds i8, ptr %110, i64 %115
  %117 = load ptr, ptr %3, align 8, !tbaa !41
  %118 = getelementptr inbounds nuw %struct.RV34DecContext, ptr %117, i32 0, i32 3
  store ptr %116, ptr %118, align 8, !tbaa !83
  store i32 0, ptr %2, align 4
  br label %119

119:                                              ; preds = %107, %102
  %120 = load i32, ptr %2, align 4
  ret i32 %120
}