; Function Attrs: nounwind uwtable
define internal fastcc range(i32 -12, 1) i32 @rv34_decoder_alloc(ptr noundef initializes((5992, 6000), (6008, 6012), (6544, 6552), (6648, 6672)) %0) unnamed_addr #4 {
  %2 = getelementptr inbounds nuw i8, ptr %0, i64 540
  %3 = load i32, ptr %2, align 4, !tbaa !60
  %4 = shl nsw i32 %3, 2
  %5 = add nsw i32 %4, 4
  %6 = getelementptr inbounds nuw i8, ptr %0, i64 6008
  store i32 %5, ptr %6, align 8, !tbaa !66
  %7 = getelementptr inbounds nuw i8, ptr %0, i64 548
  %8 = load i32, ptr %7, align 4, !tbaa !67
  %9 = getelementptr inbounds nuw i8, ptr %0, i64 544
  %10 = load i32, ptr %9, align 8, !tbaa !68
  %11 = mul nsw i32 %10, %8
  %12 = sext i32 %11 to i64
  %13 = tail call noalias ptr @av_mallocz(i64 noundef %12) #15
  %14 = getelementptr inbounds nuw i8, ptr %0, i64 6656
  store ptr %13, ptr %14, align 8, !tbaa !69
  %15 = load i32, ptr %7, align 4, !tbaa !67
  %16 = load i32, ptr %9, align 8, !tbaa !68
  %17 = mul nsw i32 %16, %15
  %18 = sext i32 %17 to i64
  %19 = shl nsw i64 %18, 1
  %20 = tail call noalias ptr @av_mallocz(i64 noundef %19) #15
  %21 = getelementptr inbounds nuw i8, ptr %0, i64 6648
  store ptr %20, ptr %21, align 8, !tbaa !70
  %22 = load i32, ptr %7, align 4, !tbaa !67
  %23 = load i32, ptr %9, align 8, !tbaa !68
  %24 = mul nsw i32 %23, %22
  %25 = sext i32 %24 to i64
  %26 = shl nsw i64 %25, 1
  %27 = tail call noalias ptr @av_mallocz(i64 noundef %26) #15
  %28 = getelementptr inbounds nuw i8, ptr %0, i64 6664
  store ptr %27, ptr %28, align 8, !tbaa !71
  %29 = load i32, ptr %6, align 8, !tbaa !66
  %30 = shl nsw i32 %29, 3
  %31 = sext i32 %30 to i64
  %32 = tail call noalias ptr @av_malloc(i64 noundef %31) #15
  %33 = getelementptr inbounds nuw i8, ptr %0, i64 5992
  store ptr %32, ptr %33, align 8, !tbaa !72
  %34 = load i32, ptr %7, align 4, !tbaa !67
  %35 = load i32, ptr %9, align 8, !tbaa !68
  %36 = mul nsw i32 %35, %34
  %37 = sext i32 %36 to i64
  %38 = shl nsw i64 %37, 2
  %39 = tail call noalias ptr @av_mallocz(i64 noundef %38) #15
  %40 = getelementptr inbounds nuw i8, ptr %0, i64 6544
  store ptr %39, ptr %40, align 8, !tbaa !73
  %41 = load ptr, ptr %14, align 8, !tbaa !69
  %.not = icmp eq ptr %41, null
  br i1 %.not, label %48, label %42

42:                                               ; preds = %1
  %43 = load ptr, ptr %21, align 8, !tbaa !70
  %.not27 = icmp eq ptr %43, null
  br i1 %.not27, label %48, label %44

44:                                               ; preds = %42
  %45 = load ptr, ptr %28, align 8, !tbaa !71
  %.not28 = icmp eq ptr %45, null
  br i1 %.not28, label %48, label %46

46:                                               ; preds = %44
  %47 = load ptr, ptr %33, align 8, !tbaa !72
  %.not29 = icmp eq ptr %47, null
  %.not30 = icmp eq ptr %39, null
  %or.cond = select i1 %.not29, i1 true, i1 %.not30
  br i1 %or.cond, label %48, label %52

48:                                               ; preds = %46, %44, %42, %1
  %49 = getelementptr inbounds nuw i8, ptr %0, i64 4328
  store i32 1, ptr %49, align 8, !tbaa !74
  tail call void @av_freep(ptr noundef nonnull %33) #15
  %50 = getelementptr inbounds nuw i8, ptr %0, i64 6000
  store ptr null, ptr %50, align 8, !tbaa !75
  %51 = getelementptr inbounds nuw i8, ptr %0, i64 6768
  tail call void @av_freep(ptr noundef nonnull %51) #15
  tail call void @av_freep(ptr noundef nonnull %40) #15
  tail call void @av_freep(ptr noundef nonnull %21) #15
  tail call void @av_freep(ptr noundef nonnull %14) #15
  tail call void @av_freep(ptr noundef nonnull %28) #15
  br label %58

52:                                               ; preds = %46
  %53 = load i32, ptr %6, align 8, !tbaa !66
  %54 = shl nsw i32 %53, 2
  %55 = sext i32 %54 to i64
  %56 = getelementptr inbounds i8, ptr %47, i64 %55
  %57 = getelementptr inbounds nuw i8, ptr %0, i64 6000
  store ptr %56, ptr %57, align 8, !tbaa !75
  br label %58

58:                                               ; preds = %52, %48
  %.0 = phi i32 [ 0, %52 ], [ -12, %48 ]
  ret i32 %.0
}